; Function Attrs: mustprogress uwtable
define noundef nonnull ptr @_ZN8Splitter16getRootContainerEv(ptr noundef nonnull align 8 dereferenceable(48) %0) local_unnamed_addr #9 align 2 {
  %2 = tail call noundef ptr @_ZNK11QMetaObject4castEP7QObject(ptr noundef nonnull align 8 dereferenceable(48) @_ZN21MultiViewer_Container16staticMetaObjectE, ptr noundef nonnull %0)
  %.not7 = icmp eq ptr %2, null
  br i1 %.not7, label %.lr.ph, label %._crit_edge

.lr.ph:                                           ; preds = %1, %.lr.ph
  %.068 = phi ptr [ %7, %.lr.ph ], [ %0, %1 ]
  %3 = getelementptr inbounds i8, ptr %.068, i64 8
  %4 = load ptr, ptr %3, align 8
  %5 = getelementptr inbounds i8, ptr %4, i64 16
  %6 = load ptr, ptr %5, align 8
  %7 = tail call noundef ptr @_ZNK11QMetaObject4castEP7QObject(ptr noundef nonnull align 8 dereferenceable(48) @_ZN8Splitter16staticMetaObjectE, ptr noundef %6)
  %8 = tail call noundef ptr @_ZNK11QMetaObject4castEP7QObject(ptr noundef nonnull align 8 dereferenceable(48) @_ZN21MultiViewer_Container16staticMetaObjectE, ptr noundef %7)
  %.not = icmp eq ptr %8, null
  br i1 %.not, label %.lr.ph, label %._crit_edge, !llvm.loop !10

._crit_edge:                                      ; preds = %.lr.ph, %1
  %.0.lcssa = phi ptr [ %2, %1 ], [ %8, %.lr.ph ]
  ret ptr %.0.lcssa
}